; Function Attrs: nounwind uwtable
define ptr @l_Lean_commitWhen___rarg___lambda__5(ptr noundef %0, ptr noundef %1, ptr noundef %2, ptr noundef %3, ptr noundef %4, ptr noundef %5) #0 {
  %7 = getelementptr inbounds nuw i8, ptr %0, i64 16
  %8 = load ptr, ptr %7, align 8, !tbaa !4
  %9 = ptrtoint ptr %8 to i64
  %10 = and i64 %9, 1
  %.not = icmp eq i64 %10, 0
  br i1 %.not, label %11, label %lean_inc.exit32

11:                                               ; preds = %6
  %.val.i = load i32, ptr %8, align 4, !tbaa !8
  %12 = icmp sgt i32 %.val.i, 0
  br i1 %12, label %13, label %15, !prof !11

13:                                               ; preds = %11
  %14 = add nuw i32 %.val.i, 1
  store i32 %14, ptr %8, align 4, !tbaa !8
  br label %lean_inc.exit32

15:                                               ; preds = %11
  %.not.i = icmp eq i32 %.val.i, 0
  br i1 %.not.i, label %lean_inc.exit32, label %16

16:                                               ; preds = %15
  tail call void @lean_inc_ref_cold(ptr noundef nonnull %8) #3
  br label %lean_inc.exit32

lean_inc.exit32:                                  ; preds = %16, %15, %13, %6
  %17 = ptrtoint ptr %3 to i64
  %18 = and i64 %17, 1
  %.not46 = icmp eq i64 %18, 0
  br i1 %.not46, label %19, label %lean_inc.exit31

19:                                               ; preds = %lean_inc.exit32
  %.val.i33 = load i32, ptr %3, align 4, !tbaa !8
  %20 = icmp sgt i32 %.val.i33, 0
  br i1 %20, label %21, label %23, !prof !11

21:                                               ; preds = %19
  %22 = add nuw i32 %.val.i33, 1
  store i32 %22, ptr %3, align 4, !tbaa !8
  br label %lean_inc.exit31

23:                                               ; preds = %19
  %.not.i34 = icmp eq i32 %.val.i33, 0
  br i1 %.not.i34, label %lean_inc.exit31, label %24

24:                                               ; preds = %23
  tail call void @lean_inc_ref_cold(ptr noundef nonnull %3) #3
  br label %lean_inc.exit31

lean_inc.exit31:                                  ; preds = %24, %23, %21, %lean_inc.exit32
  %25 = ptrtoint ptr %5 to i64
  %26 = and i64 %25, 1
  %.not47 = icmp eq i64 %26, 0
  br i1 %.not47, label %27, label %lean_inc.exit30

27:                                               ; preds = %lean_inc.exit31
  %.val.i36 = load i32, ptr %5, align 4, !tbaa !8
  %28 = icmp sgt i32 %.val.i36, 0
  br i1 %28, label %29, label %31, !prof !11

29:                                               ; preds = %27
  %30 = add nuw i32 %.val.i36, 1
  store i32 %30, ptr %5, align 4, !tbaa !8
  br label %lean_inc.exit30

31:                                               ; preds = %27
  %.not.i37 = icmp eq i32 %.val.i36, 0
  br i1 %.not.i37, label %lean_inc.exit30, label %32

32:                                               ; preds = %31
  tail call void @lean_inc_ref_cold(ptr noundef nonnull %5) #3
  br label %lean_inc.exit30

lean_inc.exit30:                                  ; preds = %32, %31, %29, %lean_inc.exit31
  %33 = ptrtoint ptr %1 to i64
  %34 = and i64 %33, 1
  %.not48 = icmp eq i64 %34, 0
  br i1 %.not48, label %35, label %lean_inc.exit29

35:                                               ; preds = %lean_inc.exit30
  %.val.i39 = load i32, ptr %1, align 4, !tbaa !8
  %36 = icmp sgt i32 %.val.i39, 0
  br i1 %36, label %37, label %39, !prof !11

37:                                               ; preds = %35
  %38 = add nuw i32 %.val.i39, 1
  store i32 %38, ptr %1, align 4, !tbaa !8
  br label %lean_inc.exit29

39:                                               ; preds = %35
  %.not.i40 = icmp eq i32 %.val.i39, 0
  br i1 %.not.i40, label %lean_inc.exit29, label %40

40:                                               ; preds = %39
  tail call void @lean_inc_ref_cold(ptr noundef nonnull %1) #3
  br label %lean_inc.exit29

lean_inc.exit29:                                  ; preds = %40, %39, %37, %lean_inc.exit30
  tail call void @lean_inc_heartbeat() #3
  %41 = tail call noalias ptr @mi_malloc_small(i64 noundef 56) #3
  %42 = icmp eq ptr %41, null
  br i1 %42, label %43, label %lean_alloc_closure.exit

43:                                               ; preds = %lean_inc.exit29
  tail call void @lean_internal_panic_out_of_memory() #4
  unreachable

lean_alloc_closure.exit:                          ; preds = %lean_inc.exit29
  %44 = getelementptr inbounds nuw i8, ptr %41, i64 4
  store i32 1, ptr %41, align 4, !tbaa !8
  store i32 -184549320, ptr %44, align 4
  %45 = getelementptr inbounds nuw i8, ptr %41, i64 8
  store ptr @l_Lean_commitWhen___rarg___lambda__2___boxed, ptr %45, align 8, !tbaa !4
  %46 = getelementptr inbounds nuw i8, ptr %41, i64 16
  store i16 5, ptr %46, align 8, !tbaa !12
  %47 = getelementptr inbounds nuw i8, ptr %41, i64 18
  store i16 4, ptr %47, align 2, !tbaa !12
  %48 = getelementptr inbounds nuw i8, ptr %41, i64 24
  store ptr %1, ptr %48, align 8, !tbaa !4
  %49 = getelementptr inbounds nuw i8, ptr %41, i64 32
  store ptr %5, ptr %49, align 8, !tbaa !4
  %50 = getelementptr inbounds nuw i8, ptr %41, i64 40
  store ptr %2, ptr %50, align 8, !tbaa !4
  %51 = getelementptr inbounds nuw i8, ptr %41, i64 48
  store ptr %3, ptr %51, align 8, !tbaa !4
  br i1 %.not46, label %52, label %lean_inc.exit

52:                                               ; preds = %lean_alloc_closure.exit
  %.val.i42 = load i32, ptr %3, align 4, !tbaa !8
  %53 = icmp sgt i32 %.val.i42, 0
  br i1 %53, label %54, label %56, !prof !11

54:                                               ; preds = %52
  %55 = add nuw i32 %.val.i42, 1
  store i32 %55, ptr %3, align 4, !tbaa !8
  br label %lean_inc.exit

56:                                               ; preds = %52
  %.not.i43 = icmp eq i32 %.val.i42, 0
  br i1 %.not.i43, label %lean_inc.exit, label %57

57:                                               ; preds = %56
  tail call void @lean_inc_ref_cold(ptr noundef nonnull %3) #3
  br label %lean_inc.exit

lean_inc.exit:                                    ; preds = %57, %56, %54, %lean_alloc_closure.exit
  %58 = tail call ptr @lean_apply_4(ptr noundef %3, ptr noundef nonnull inttoptr (i64 1 to ptr), ptr noundef nonnull inttoptr (i64 1 to ptr), ptr noundef %4, ptr noundef nonnull %41) #3
  tail call void @lean_inc_heartbeat() #3
  %59 = tail call noalias ptr @mi_malloc_small(i64 noundef 56) #3
  %60 = icmp eq ptr %59, null
  br i1 %60, label %61, label %lean_alloc_closure.exit45

61:                                               ; preds = %lean_inc.exit
  tail call void @lean_internal_panic_out_of_memory() #4
  unreachable

lean_alloc_closure.exit45:                        ; preds = %lean_inc.exit
  %62 = getelementptr inbounds nuw i8, ptr %59, i64 4
  store i32 1, ptr %59, align 4, !tbaa !8
  store i32 -184549320, ptr %62, align 4
  %63 = getelementptr inbounds nuw i8, ptr %59, i64 8
  store ptr @l_Lean_commitWhen___rarg___lambda__4, ptr %63, align 8, !tbaa !4
  %64 = getelementptr inbounds nuw i8, ptr %59, i64 16
  store i16 5, ptr %64, align 8, !tbaa !12
  %65 = getelementptr inbounds nuw i8, ptr %59, i64 18
  store i16 4, ptr %65, align 2, !tbaa !12
  %66 = getelementptr inbounds nuw i8, ptr %59, i64 24
  store ptr %1, ptr %66, align 8, !tbaa !4
  %67 = getelementptr inbounds nuw i8, ptr %59, i64 32
  store ptr %5, ptr %67, align 8, !tbaa !4
  %68 = getelementptr inbounds nuw i8, ptr %59, i64 40
  store ptr %0, ptr %68, align 8, !tbaa !4
  %69 = getelementptr inbounds nuw i8, ptr %59, i64 48
  store ptr %3, ptr %69, align 8, !tbaa !4
  %70 = tail call ptr @lean_apply_3(ptr noundef %8, ptr noundef nonnull inttoptr (i64 1 to ptr), ptr noundef %58, ptr noundef nonnull %59) #3
  ret ptr %70
}